target datalayout = "e-m:e-p270:32:32-p271:32:32-p272:64:64-i64:64-i128:128-f80:128-n8:16:32:64-S128"
target triple = "x86_64-unknown-linux-gnu"

%"struct.icu_75::UInitOnce" = type { %"struct.std::atomic", i32 }
%"struct.std::atomic" = type { %"struct.std::__atomic_base" }
%"struct.std::__atomic_base" = type { i32 }

@_ZN12_GLOBAL__N_115gLayoutInitOnceE = internal global { { i32 }, i32 } zeroinitializer, align 4

; Function Attrs: noreturn nounwind uwtable
define linkonce_odr hidden void @__clang_call_terminate(ptr noundef %0) #4 comdat {
  %2 = call ptr @__cxa_begin_catch(ptr %0) #5
  call void @_ZSt9terminatev() #6
  unreachable
}

; Function Attrs: mustprogress nounwind uwtable
define linkonce_odr noundef i32 @_ZStanSt12memory_orderSt23__memory_order_modifier(i32 noundef %__m, i32 noundef %__mod) #2 comdat {
entry:
  %__m.addr = alloca i32, align 4
  %__mod.addr = alloca i32, align 4
  store i32 %__m, ptr %__m.addr, align 4
  store i32 %__mod, ptr %__mod.addr, align 4
  %0 = load i32, ptr %__m.addr, align 4
  %1 = load i32, ptr %__mod.addr, align 4
  %and = and i32 %0, %1
  ret i32 %and
}

; Function Attrs: mustprogress nounwind uwtable
define linkonce_odr noundef i32 @_ZN6icu_7516umtx_loadAcquireERSt6atomicIiE(ptr noundef nonnull align 4 dereferenceable(4) %var) #2 comdat personality ptr @__gxx_personality_v0 {
entry:
  %this.addr.i = alloca ptr, align 8
  %__m.addr.i = alloca i32, align 4
  %__b.i = alloca i32, align 4
  %atomic-temp.i = alloca i32, align 4
  %var.addr = alloca ptr, align 8
  store ptr %var, ptr %var.addr, align 8
  %0 = load ptr, ptr %var.addr, align 8
  store ptr %0, ptr %this.addr.i, align 8
  store i32 2, ptr %__m.addr.i, align 4
  %this1.i = load ptr, ptr %this.addr.i, align 8
  %1 = load i32, ptr %__m.addr.i, align 4
  %call.i = invoke noundef i32 @_ZStanSt12memory_orderSt23__memory_order_modifier(i32 noundef %1, i32 noundef 65535)
          to label %invoke.cont.i unwind label %terminate.lpad.i

invoke.cont.i:                                    ; preds = %entry
  store i32 %call.i, ptr %__b.i, align 4
  %2 = load i32, ptr %__m.addr.i, align 4
  switch i32 %2, label %monotonic.i [
    i32 1, label %acquire.i
    i32 2, label %acquire.i
    i32 5, label %seqcst.i
  ]

monotonic.i:                                      ; preds = %invoke.cont.i
  %3 = load atomic i32, ptr %this1.i monotonic, align 4
  store i32 %3, ptr %atomic-temp.i, align 4
  br label %_ZNKSt13__atomic_baseIiE4loadESt12memory_order.exit

acquire.i:                                        ; preds = %invoke.cont.i, %invoke.cont.i
  %4 = load atomic i32, ptr %this1.i acquire, align 4
  store i32 %4, ptr %atomic-temp.i, align 4
  br label %_ZNKSt13__atomic_baseIiE4loadESt12memory_order.exit

seqcst.i:                                         ; preds = %invoke.cont.i
  %5 = load atomic i32, ptr %this1.i seq_cst, align 4
  store i32 %5, ptr %atomic-temp.i, align 4
  br label %_ZNKSt13__atomic_baseIiE4loadESt12memory_order.exit

terminate.lpad.i:                                 ; preds = %entry
  %6 = landingpad { ptr, i32 }
          catch ptr null
  %7 = extractvalue { ptr, i32 } %6, 0
  call void @__clang_call_terminate(ptr %7) #6
  unreachable

_ZNKSt13__atomic_baseIiE4loadESt12memory_order.exit: ; preds = %seqcst.i, %acquire.i, %monotonic.i
  %8 = load i32, ptr %atomic-temp.i, align 4
  ret i32 %8
}

; Function Attrs: mustprogress nounwind uwtable
define internal noundef signext i8 @_ZL9U_SUCCESS10UErrorCode(i32 noundef %code) #2 {
entry:
  %code.addr = alloca i32, align 4
  store i32 %code, ptr %code.addr, align 4
  %0 = load i32, ptr %code.addr, align 4
  %cmp = icmp sle i32 %0, 0
  %conv = zext i1 %cmp to i8
  ret i8 %conv
}

; Function Attrs: mustprogress uwtable
define linkonce_odr void @_ZN6icu_7513umtx_initOnceERNS_9UInitOnceEPFvR10UErrorCodeES3_(ptr noundef nonnull align 4 dereferenceable(8) %uio, ptr noundef %fp, ptr noundef nonnull align 4 dereferenceable(4) %errCode) #0 comdat {
entry:
  %uio.addr = alloca ptr, align 8
  %fp.addr = alloca ptr, align 8
  %errCode.addr = alloca ptr, align 8
  store ptr %uio, ptr %uio.addr, align 8
  store ptr %fp, ptr %fp.addr, align 8
  store ptr %errCode, ptr %errCode.addr, align 8
  %0 = load ptr, ptr %errCode.addr, align 8
  %1 = load i32, ptr %0, align 4
  %call = call noundef signext i8 @_ZL9U_FAILURE10UErrorCode(i32 noundef %1)
  %tobool = icmp ne i8 %call, 0
  br i1 %tobool, label %if.then, label %if.end

if.then:                                          ; preds = %entry
  br label %if.end11

if.end:                                           ; preds = %entry
  %2 = load ptr, ptr %uio.addr, align 8
  %fState = getelementptr inbounds %"struct.icu_75::UInitOnce", ptr %2, i32 0, i32 0
  %call1 = call noundef i32 @_ZN6icu_7516umtx_loadAcquireERSt6atomicIiE(ptr noundef nonnull align 4 dereferenceable(4) %fState)
  %cmp = icmp ne i32 %call1, 2
  br i1 %cmp, label %land.lhs.true, label %if.else

land.lhs.true:                                    ; preds = %if.end
  %3 = load ptr, ptr %uio.addr, align 8
  %call2 = call noundef signext i8 @_ZN6icu_7520umtx_initImplPreInitERNS_9UInitOnceE(ptr noundef nonnull align 4 dereferenceable(8) %3)
  %tobool3 = icmp ne i8 %call2, 0
  br i1 %tobool3, label %if.then4, label %if.else

if.then4:                                         ; preds = %land.lhs.true
  %4 = load ptr, ptr %fp.addr, align 8
  %5 = load ptr, ptr %errCode.addr, align 8
  call void %4(ptr noundef nonnull align 4 dereferenceable(4) %5)
  %6 = load ptr, ptr %errCode.addr, align 8
  %7 = load i32, ptr %6, align 4
  %8 = load ptr, ptr %uio.addr, align 8
  %fErrCode = getelementptr inbounds %"struct.icu_75::UInitOnce", ptr %8, i32 0, i32 1
  store i32 %7, ptr %fErrCode, align 4
  %9 = load ptr, ptr %uio.addr, align 8
  call void @_ZN6icu_7521umtx_initImplPostInitERNS_9UInitOnceE(ptr noundef nonnull align 4 dereferenceable(8) %9)
  br label %if.end11

if.else:                                          ; preds = %land.lhs.true, %if.end
  %10 = load ptr, ptr %uio.addr, align 8
  %fErrCode5 = getelementptr inbounds %"struct.icu_75::UInitOnce", ptr %10, i32 0, i32 1
  %11 = load i32, ptr %fErrCode5, align 4
  %call6 = call noundef signext i8 @_ZL9U_FAILURE10UErrorCode(i32 noundef %11)
  %tobool7 = icmp ne i8 %call6, 0
  br i1 %tobool7, label %if.then8, label %if.end10

if.then8:                                         ; preds = %if.else
  %12 = load ptr, ptr %uio.addr, align 8
  %fErrCode9 = getelementptr inbounds %"struct.icu_75::UInitOnce", ptr %12, i32 0, i32 1
  %13 = load i32, ptr %fErrCode9, align 4
  %14 = load ptr, ptr %errCode.addr, align 8
  store i32 %13, ptr %14, align 4
  br label %if.end10

if.end10:                                         ; preds = %if.then8, %if.else
  br label %if.end11

if.end11:                                         ; preds = %if.end10, %if.then4, %if.then
  ret void
}

; Function Attrs: mustprogress nounwind uwtable
define internal noundef signext i8 @_ZL9U_FAILURE10UErrorCode(i32 noundef %code) #2 {
entry:
  %code.addr = alloca i32, align 4
  store i32 %code, ptr %code.addr, align 4
  %0 = load i32, ptr %code.addr, align 4
  %cmp = icmp sgt i32 %0, 0
  %conv = zext i1 %cmp to i8
  ret i8 %conv
}

; Function Attrs: mustprogress uwtable
define internal noundef signext i8 @_ZN12_GLOBAL__N_118ulayout_ensureDataER10UErrorCode(ptr noundef nonnull align 4 dereferenceable(4) %errorCode) #0 {
entry:
  %retval = alloca i8, align 1
  %errorCode.addr = alloca ptr, align 8
  store ptr %errorCode, ptr %errorCode.addr, align 8
  %0 = load ptr, ptr %errorCode.addr, align 8
  %1 = load i32, ptr %0, align 4
  %call = call noundef signext i8 @_ZL9U_FAILURE10UErrorCode(i32 noundef %1)
  %tobool = icmp ne i8 %call, 0
  br i1 %tobool, label %if.then, label %if.end

if.then:                                          ; preds = %entry
  store i8 0, ptr %retval, align 1
  br label %return

if.end:                                           ; preds = %entry
  %2 = load ptr, ptr %errorCode.addr, align 8
  call void @_ZN6icu_7513umtx_initOnceERNS_9UInitOnceEPFvR10UErrorCodeES3_(ptr noundef nonnull align 4 dereferenceable(8) @_ZN12_GLOBAL__N_115gLayoutInitOnceE, ptr noundef @_ZN12_GLOBAL__N_112ulayout_loadER10UErrorCode, ptr noundef nonnull align 4 dereferenceable(4) %2)
  %3 = load ptr, ptr %errorCode.addr, align 8
  %4 = load i32, ptr %3, align 4
  %call1 = call noundef signext i8 @_ZL9U_SUCCESS10UErrorCode(i32 noundef %4)
  store i8 %call1, ptr %retval, align 1
  br label %return

return:                                           ; preds = %if.end, %if.then
  %5 = load i8, ptr %retval, align 1
  ret i8 %5
}