; Function Attrs: mustprogress uwtable
define internal fastcc noundef signext i8 @_ZN12_GLOBAL__N_118ulayout_ensureDataER10UErrorCode(ptr noundef nonnull align 4 dereferenceable(4) %errorCode) unnamed_addr #0 personality ptr @__gxx_personality_v0 {
entry:
  %0 = load i32, ptr %errorCode, align 4
  %cmp.i = icmp slt i32 %0, 1
  br i1 %cmp.i, label %if.end.i, label %return

if.end.i:                                         ; preds = %entry
  %1 = load atomic i32, ptr @_ZN12_GLOBAL__N_115gLayoutInitOnceE acquire, align 4
  %cmp.not.i = icmp eq i32 %1, 2
  br i1 %cmp.not.i, label %if.else.i, label %land.lhs.true.i

land.lhs.true.i:                                  ; preds = %if.end.i
  %call2.i = tail call noundef signext i8 @_ZN6icu_7520umtx_initImplPreInitERNS_9UInitOnceE(ptr noundef nonnull align 4 dereferenceable(8) @_ZN12_GLOBAL__N_115gLayoutInitOnceE)
  %tobool3.not.i = icmp eq i8 %call2.i, 0
  br i1 %tobool3.not.i, label %if.else.i, label %if.then4.i

if.then4.i:                                       ; preds = %land.lhs.true.i
  %call.i = tail call ptr @udata_openChoice_75(ptr noundef null, ptr noundef nonnull @.str, ptr noundef nonnull @.str.2, ptr noundef nonnull @_ZN12_GLOBAL__N_120ulayout_isAcceptableEPvPKcS2_PK9UDataInfo, ptr noundef null, ptr noundef nonnull %errorCode)
  store ptr %call.i, ptr @_ZN12_GLOBAL__N_113gLayoutMemoryE, align 8
  %2 = load i32, ptr %errorCode, align 4
  %cmp.i.i5 = icmp slt i32 %2, 1
  br i1 %cmp.i.i5, label %if.end.i6, label %_ZN12_GLOBAL__N_112ulayout_loadER10UErrorCode.exit

if.end.i6:                                        ; preds = %if.then4.i
  %call2.i7 = tail call ptr @udata_getMemory_75(ptr noundef %call.i)
  %3 = load i32, ptr %call2.i7, align 4
  %cmp.i8 = icmp slt i32 %3, 12
  br i1 %cmp.i8, label %if.then3.i, label %if.end4.i

if.then3.i:                                       ; preds = %if.end.i6
  store i32 3, ptr %errorCode, align 4
  br label %_ZN12_GLOBAL__N_112ulayout_loadER10UErrorCode.exit

if.end4.i:                                        ; preds = %if.end.i6
  %mul.i = shl nsw i32 %3, 2
  %arrayidx5.i = getelementptr inbounds i8, ptr %call2.i7, i64 4
  %4 = load i32, ptr %arrayidx5.i, align 4
  %sub.i = sub nsw i32 %4, %mul.i
  %cmp6.i = icmp sgt i32 %sub.i, 15
  br i1 %cmp6.i, label %if.then7.i, label %if.end9.i

if.then7.i:                                       ; preds = %if.end4.i
  %idx.ext.i = zext nneg i32 %mul.i to i64
  %add.ptr.i = getelementptr inbounds i8, ptr %call2.i7, i64 %idx.ext.i
  %call8.i = tail call ptr @ucptrie_openFromBinary_75(i32 noundef -1, i32 noundef -1, ptr noundef nonnull %add.ptr.i, i32 noundef %sub.i, ptr noundef null, ptr noundef nonnull %errorCode)
  store ptr %call8.i, ptr @_ZN12_GLOBAL__N_19gInpcTrieE, align 8
  br label %if.end9.i

if.end9.i:                                        ; preds = %if.then7.i, %if.end4.i
  %arrayidx10.i = getelementptr inbounds i8, ptr %call2.i7, i64 8
  %5 = load i32, ptr %arrayidx10.i, align 4
  %sub11.i = sub nsw i32 %5, %4
  %cmp12.i = icmp sgt i32 %sub11.i, 15
  br i1 %cmp12.i, label %if.then13.i, label %if.end17.i

if.then13.i:                                      ; preds = %if.end9.i
  %idx.ext14.i = sext i32 %4 to i64
  %add.ptr15.i = getelementptr inbounds i8, ptr %call2.i7, i64 %idx.ext14.i
  %call16.i = tail call ptr @ucptrie_openFromBinary_75(i32 noundef -1, i32 noundef -1, ptr noundef nonnull %add.ptr15.i, i32 noundef %sub11.i, ptr noundef null, ptr noundef nonnull %errorCode)
  store ptr %call16.i, ptr @_ZN12_GLOBAL__N_19gInscTrieE, align 8
  br label %if.end17.i

if.end17.i:                                       ; preds = %if.then13.i, %if.end9.i
  %arrayidx18.i = getelementptr inbounds i8, ptr %call2.i7, i64 12
  %6 = load i32, ptr %arrayidx18.i, align 4
  %sub19.i = sub nsw i32 %6, %5
  %cmp20.i = icmp sgt i32 %sub19.i, 15
  br i1 %cmp20.i, label %if.then21.i, label %if.end25.i

if.then21.i:                                      ; preds = %if.end17.i
  %idx.ext22.i = sext i32 %5 to i64
  %add.ptr23.i = getelementptr inbounds i8, ptr %call2.i7, i64 %idx.ext22.i
  %call24.i = tail call ptr @ucptrie_openFromBinary_75(i32 noundef -1, i32 noundef -1, ptr noundef nonnull %add.ptr23.i, i32 noundef %sub19.i, ptr noundef null, ptr noundef nonnull %errorCode)
  store ptr %call24.i, ptr @_ZN12_GLOBAL__N_17gVoTrieE, align 8
  br label %if.end25.i

if.end25.i:                                       ; preds = %if.then21.i, %if.end17.i
  %arrayidx26.i = getelementptr inbounds i8, ptr %call2.i7, i64 36
  %7 = load i32, ptr %arrayidx26.i, align 4
  %shr.i = lshr i32 %7, 24
  store i32 %shr.i, ptr @_ZN12_GLOBAL__N_113gMaxInpcValueE, align 4
  %shr27.i = lshr i32 %7, 16
  %and.i = and i32 %shr27.i, 255
  store i32 %and.i, ptr @_ZN12_GLOBAL__N_113gMaxInscValueE, align 4
  %shr28.i = lshr i32 %7, 8
  %and29.i = and i32 %shr28.i, 255
  store i32 %and29.i, ptr @_ZN12_GLOBAL__N_111gMaxVoValueE, align 4
  tail call void @ucln_common_registerCleanup_75(i32 noundef 19, ptr noundef nonnull @_ZN12_GLOBAL__N_114uprops_cleanupEv)
  %.pre = load i32, ptr %errorCode, align 4
  br label %_ZN12_GLOBAL__N_112ulayout_loadER10UErrorCode.exit

_ZN12_GLOBAL__N_112ulayout_loadER10UErrorCode.exit: ; preds = %if.then4.i, %if.then3.i, %if.end25.i
  %8 = phi i32 [ %2, %if.then4.i ], [ 3, %if.then3.i ], [ %.pre, %if.end25.i ]
  store i32 %8, ptr getelementptr inbounds ({ { i32 }, i32 }, ptr @_ZN12_GLOBAL__N_115gLayoutInitOnceE, i64 0, i32 1), align 4
  tail call void @_ZN6icu_7521umtx_initImplPostInitERNS_9UInitOnceE(ptr noundef nonnull align 4 dereferenceable(8) @_ZN12_GLOBAL__N_115gLayoutInitOnceE)
  br label %_ZN6icu_7513umtx_initOnceERNS_9UInitOnceEPFvR10UErrorCodeES3_.exit

if.else.i:                                        ; preds = %land.lhs.true.i, %if.end.i
  %9 = load i32, ptr getelementptr inbounds ({ { i32 }, i32 }, ptr @_ZN12_GLOBAL__N_115gLayoutInitOnceE, i64 0, i32 1), align 4
  %cmp.i9.i = icmp slt i32 %9, 1
  br i1 %cmp.i9.i, label %_ZN6icu_7513umtx_initOnceERNS_9UInitOnceEPFvR10UErrorCodeES3_.exit, label %if.then8.i

if.then8.i:                                       ; preds = %if.else.i
  store i32 %9, ptr %errorCode, align 4
  br label %_ZN6icu_7513umtx_initOnceERNS_9UInitOnceEPFvR10UErrorCodeES3_.exit

_ZN6icu_7513umtx_initOnceERNS_9UInitOnceEPFvR10UErrorCodeES3_.exit: ; preds = %_ZN12_GLOBAL__N_112ulayout_loadER10UErrorCode.exit, %if.else.i, %if.then8.i
  %10 = load i32, ptr %errorCode, align 4
  %cmp.i3 = icmp slt i32 %10, 1
  %conv.i4 = zext i1 %cmp.i3 to i8
  br label %return

return:                                           ; preds = %entry, %_ZN6icu_7513umtx_initOnceERNS_9UInitOnceEPFvR10UErrorCodeES3_.exit
  %retval.0 = phi i8 [ %conv.i4, %_ZN6icu_7513umtx_initOnceERNS_9UInitOnceEPFvR10UErrorCodeES3_.exit ], [ 0, %entry ]
  ret i8 %retval.0
}